#include <math.h>
#include <stdio.h>
#include <stdlib.h>
#include <string.h>

int main()
{
	int n,i,j,k,h;
	scanf("%d",&n);
	if(n==3||n==2||n==4||n==1){
		printf("empty");
	}
	else{
	for(i=2;i<=n;i++){
		for(j=2;j<i;j++){
			if(i%j==0){
				break;
			}
		}
		if(j==i){
			h=i-2;
			for(k=2;k<h;k++){
				if(h%k==0){
					break;
				}
			}
			if(k==h){
				printf("%d %d\n",h,i);
			}
		}
	}
	}
	return 0;
}