; ModuleID = 'source-C-CXX/59/894.c'
source_filename = "source-C-CXX/59/894.c"
target datalayout = "e-m:e-p270:32:32-p271:32:32-p272:64:64-i64:64-f80:128-n8:16:32:64-S128"
target triple = "x86_64-pc-linux-gnu"

@.str = private unnamed_addr constant [3 x i8] c"%d\00", align 1
@.str.1 = private unnamed_addr constant [6 x i8] c"empty\00", align 1
@.str.2 = private unnamed_addr constant [7 x i8] c"%d %d\0A\00", align 1

; Function Attrs: nofree nounwind sspstrong uwtable
define dso_local i32 @main() local_unnamed_addr #0 {
  %1 = alloca i32, align 4
  %2 = bitcast i32* %1 to i8*
  call void @llvm.lifetime.start.p0i8(i64 4, i8* nonnull %2) #3
  %3 = call i32 (i8*, ...) @__isoc99_scanf(i8* getelementptr inbounds ([3 x i8], [3 x i8]* @.str, i64 0, i64 0), i32* nonnull %1)
  %4 = load i32, i32* %1, align 4, !tbaa !5
  %5 = add i32 %4, -1
  %6 = icmp ult i32 %5, 4
  br i1 %6, label %9, label %7

7:                                                ; preds = %0
  %8 = icmp slt i32 %4, 2
  br i1 %8, label %47, label %11

9:                                                ; preds = %0
  %10 = call i32 (i8*, ...) @printf(i8* nonnull dereferenceable(1) getelementptr inbounds ([6 x i8], [6 x i8]* @.str.1, i64 0, i64 0))
  br label %47

11:                                               ; preds = %7, %42
  %12 = phi i32 [ %43, %42 ], [ %4, %7 ]
  %13 = phi i32 [ %46, %42 ], [ 0, %7 ]
  %14 = phi i32 [ %44, %42 ], [ 2, %7 ]
  %15 = icmp ugt i32 %14, 2
  br i1 %15, label %16, label %23

16:                                               ; preds = %11, %20
  %17 = phi i32 [ %21, %20 ], [ 2, %11 ]
  %18 = urem i32 %14, %17
  %19 = icmp eq i32 %18, 0
  br i1 %19, label %23, label %20

20:                                               ; preds = %16
  %21 = add nuw nsw i32 %17, 1
  %22 = icmp eq i32 %21, %14
  br i1 %22, label %26, label %16, !llvm.loop !9

23:                                               ; preds = %16, %11
  %24 = phi i32 [ 2, %11 ], [ %17, %16 ]
  %25 = icmp eq i32 %24, %14
  br i1 %25, label %26, label %42

26:                                               ; preds = %20, %23
  %27 = add nsw i32 %14, -2
  %28 = icmp ugt i32 %14, 4
  br i1 %28, label %29, label %36

29:                                               ; preds = %26, %33
  %30 = phi i32 [ %34, %33 ], [ 2, %26 ]
  %31 = urem i32 %27, %30
  %32 = icmp eq i32 %31, 0
  br i1 %32, label %36, label %33

33:                                               ; preds = %29
  %34 = add nuw nsw i32 %30, 1
  %35 = icmp eq i32 %34, %13
  br i1 %35, label %36, label %29, !llvm.loop !11

36:                                               ; preds = %33, %29, %26
  %37 = phi i32 [ 2, %26 ], [ %30, %29 ], [ %13, %33 ]
  %38 = icmp eq i32 %37, %27
  br i1 %38, label %39, label %42

39:                                               ; preds = %36
  %40 = call i32 (i8*, ...) @printf(i8* nonnull dereferenceable(1) getelementptr inbounds ([7 x i8], [7 x i8]* @.str.2, i64 0, i64 0), i32 %27, i32 %14)
  %41 = load i32, i32* %1, align 4, !tbaa !5
  br label %42

42:                                               ; preds = %23, %39, %36
  %43 = phi i32 [ %12, %23 ], [ %41, %39 ], [ %12, %36 ]
  %44 = add nuw nsw i32 %14, 1
  %45 = icmp slt i32 %14, %43
  %46 = add nuw nsw i32 %13, 1
  br i1 %45, label %11, label %47, !llvm.loop !12

47:                                               ; preds = %42, %7, %9
  call void @llvm.lifetime.end.p0i8(i64 4, i8* nonnull %2) #3
  ret i32 0
}

; Function Attrs: argmemonly mustprogress nofree nosync nounwind willreturn
declare void @llvm.lifetime.start.p0i8(i64 immarg, i8* nocapture) #1

; Function Attrs: nofree nounwind
declare noundef i32 @__isoc99_scanf(i8* nocapture noundef readonly, ...) local_unnamed_addr #2

; Function Attrs: nofree nounwind
declare noundef i32 @printf(i8* nocapture noundef readonly, ...) local_unnamed_addr #2

; Function Attrs: argmemonly mustprogress nofree nosync nounwind willreturn
declare void @llvm.lifetime.end.p0i8(i64 immarg, i8* nocapture) #1


!llvm.module.flags = !{!0, !1, !2, !3}
!llvm.ident = !{!4}

!0 = !{i32 1, !"wchar_size", i32 4}
!1 = !{i32 7, !"PIC Level", i32 2}
!2 = !{i32 7, !"PIE Level", i32 2}
!3 = !{i32 7, !"uwtable", i32 1}
!4 = !{!"clang version 13.0.0"}
!5 = !{!6, !6, i64 0}
!6 = !{!"int", !7, i64 0}
!7 = !{!"omnipotent char", !8, i64 0}
!8 = !{!"Simple C/C++ TBAA"}
!9 = distinct !{!9, !10}
!10 = !{!"llvm.loop.mustprogress"}
!11 = distinct !{!11, !10}
!12 = distinct !{!12, !10}
